; Function Attrs: mustprogress uwtable
define hidden noundef zeroext i1 @_ZN4cvc58internal13preprocessing4util13ITESimplifier14leavesAreConstENS0_12NodeTemplateILb0EEE(ptr noundef nonnull align 8 dereferenceable(712) %0, ptr noundef readonly captures(none) %1) local_unnamed_addr #3 align 2 personality ptr @__gxx_personality_v0 {
  %3 = alloca %"class.cvc5::internal::NodeTemplate.375", align 8
  %4 = alloca %"class.cvc5::internal::NodeTemplate.375", align 8
  %5 = load ptr, ptr %1, align 8, !tbaa !36
  store ptr %5, ptr %3, align 8, !tbaa !36
  %6 = getelementptr inbounds nuw i8, ptr %0, i64 8
  %7 = load ptr, ptr %6, align 8, !tbaa !35
  store ptr %5, ptr %4, align 8, !tbaa !36
  %8 = call noundef i32 @_ZNK4cvc58internal3Env8theoryOfENS0_12NodeTemplateILb0EEE(ptr noundef nonnull align 8 dereferenceable(696) %7, ptr noundef nonnull %4)
  %9 = call noundef zeroext i1 @_ZN4cvc58internal13preprocessing4util13ITESimplifier14leavesAreConstENS0_12NodeTemplateILb0EEENS0_6theory8TheoryIdE(ptr noundef nonnull align 8 dereferenceable(712) %0, ptr noundef nonnull %3, i32 noundef %8)
  ret i1 %9
}